target datalayout = "e-m:e-p270:32:32-p271:32:32-p272:64:64-i64:64-i128:128-f80:128-n8:16:32:64-S128"
target triple = "x86_64-pc-linux-gnu"

%struct._generic_N_Vector = type { ptr, ptr, ptr }
%struct._N_VectorContent_Serial = type { i64, i32, ptr }
%struct._generic_SUNMatrix = type { ptr, ptr, ptr }
%struct._SUNMatrixContent_Dense = type { i64, i64, ptr, i64, ptr }

; Function Attrs: nounwind uwtable
define internal i32 @Jac(double noundef %0, ptr noundef %1, ptr noundef %2, ptr noundef %3, ptr noundef %4, ptr noundef %5, ptr noundef %6, ptr noundef %7) #0 {
  %9 = alloca double, align 8
  %10 = alloca ptr, align 8
  %11 = alloca ptr, align 8
  %12 = alloca ptr, align 8
  %13 = alloca ptr, align 8
  %14 = alloca ptr, align 8
  %15 = alloca ptr, align 8
  %16 = alloca ptr, align 8
  %17 = alloca double, align 8
  %18 = alloca double, align 8
  store double %0, ptr %9, align 8, !tbaa !25
  store ptr %1, ptr %10, align 8, !tbaa !4
  store ptr %2, ptr %11, align 8, !tbaa !4
  store ptr %3, ptr %12, align 8, !tbaa !9
  store ptr %4, ptr %13, align 8, !tbaa !13
  store ptr %5, ptr %14, align 8, !tbaa !4
  store ptr %6, ptr %15, align 8, !tbaa !4
  store ptr %7, ptr %16, align 8, !tbaa !4
  call void @llvm.lifetime.start.p0(i64 8, ptr %17) #5
  call void @llvm.lifetime.start.p0(i64 8, ptr %18) #5
  %19 = load ptr, ptr %10, align 8, !tbaa !4
  %20 = getelementptr inbounds nuw %struct._generic_N_Vector, ptr %19, i32 0, i32 0
  %21 = load ptr, ptr %20, align 8, !tbaa !18
  %22 = getelementptr inbounds nuw %struct._N_VectorContent_Serial, ptr %21, i32 0, i32 2
  %23 = load ptr, ptr %22, align 8, !tbaa !21
  %24 = getelementptr inbounds double, ptr %23, i64 1
  %25 = load double, ptr %24, align 8, !tbaa !25
  store double %25, ptr %17, align 8, !tbaa !25
  %26 = load ptr, ptr %10, align 8, !tbaa !4
  %27 = getelementptr inbounds nuw %struct._generic_N_Vector, ptr %26, i32 0, i32 0
  %28 = load ptr, ptr %27, align 8, !tbaa !18
  %29 = getelementptr inbounds nuw %struct._N_VectorContent_Serial, ptr %28, i32 0, i32 2
  %30 = load ptr, ptr %29, align 8, !tbaa !21
  %31 = getelementptr inbounds double, ptr %30, i64 2
  %32 = load double, ptr %31, align 8, !tbaa !25
  store double %32, ptr %18, align 8, !tbaa !25
  %33 = load ptr, ptr %12, align 8, !tbaa !9
  %34 = getelementptr inbounds nuw %struct._generic_SUNMatrix, ptr %33, i32 0, i32 0
  %35 = load ptr, ptr %34, align 8, !tbaa !34
  %36 = getelementptr inbounds nuw %struct._SUNMatrixContent_Dense, ptr %35, i32 0, i32 4
  %37 = load ptr, ptr %36, align 8, !tbaa !37
  %38 = getelementptr inbounds ptr, ptr %37, i64 0
  %39 = load ptr, ptr %38, align 8, !tbaa !33
  %40 = getelementptr inbounds double, ptr %39, i64 0
  store double -4.000000e-02, ptr %40, align 8, !tbaa !25
  %41 = load double, ptr %18, align 8, !tbaa !25
  %42 = fmul double 1.000000e+04, %41
  %43 = load ptr, ptr %12, align 8, !tbaa !9
  %44 = getelementptr inbounds nuw %struct._generic_SUNMatrix, ptr %43, i32 0, i32 0
  %45 = load ptr, ptr %44, align 8, !tbaa !34
  %46 = getelementptr inbounds nuw %struct._SUNMatrixContent_Dense, ptr %45, i32 0, i32 4
  %47 = load ptr, ptr %46, align 8, !tbaa !37
  %48 = getelementptr inbounds ptr, ptr %47, i64 1
  %49 = load ptr, ptr %48, align 8, !tbaa !33
  %50 = getelementptr inbounds double, ptr %49, i64 0
  store double %42, ptr %50, align 8, !tbaa !25
  %51 = load double, ptr %17, align 8, !tbaa !25
  %52 = fmul double 1.000000e+04, %51
  %53 = load ptr, ptr %12, align 8, !tbaa !9
  %54 = getelementptr inbounds nuw %struct._generic_SUNMatrix, ptr %53, i32 0, i32 0
  %55 = load ptr, ptr %54, align 8, !tbaa !34
  %56 = getelementptr inbounds nuw %struct._SUNMatrixContent_Dense, ptr %55, i32 0, i32 4
  %57 = load ptr, ptr %56, align 8, !tbaa !37
  %58 = getelementptr inbounds ptr, ptr %57, i64 2
  %59 = load ptr, ptr %58, align 8, !tbaa !33
  %60 = getelementptr inbounds double, ptr %59, i64 0
  store double %52, ptr %60, align 8, !tbaa !25
  %61 = load ptr, ptr %12, align 8, !tbaa !9
  %62 = getelementptr inbounds nuw %struct._generic_SUNMatrix, ptr %61, i32 0, i32 0
  %63 = load ptr, ptr %62, align 8, !tbaa !34
  %64 = getelementptr inbounds nuw %struct._SUNMatrixContent_Dense, ptr %63, i32 0, i32 4
  %65 = load ptr, ptr %64, align 8, !tbaa !37
  %66 = getelementptr inbounds ptr, ptr %65, i64 0
  %67 = load ptr, ptr %66, align 8, !tbaa !33
  %68 = getelementptr inbounds double, ptr %67, i64 1
  store double 4.000000e-02, ptr %68, align 8, !tbaa !25
  %69 = load double, ptr %18, align 8, !tbaa !25
  %70 = load double, ptr %17, align 8, !tbaa !25
  %71 = fmul double 6.000000e+07, %70
  %72 = fneg double %71
  %73 = call double @llvm.fmuladd.f64(double -1.000000e+04, double %69, double %72)
  %74 = load ptr, ptr %12, align 8, !tbaa !9
  %75 = getelementptr inbounds nuw %struct._generic_SUNMatrix, ptr %74, i32 0, i32 0
  %76 = load ptr, ptr %75, align 8, !tbaa !34
  %77 = getelementptr inbounds nuw %struct._SUNMatrixContent_Dense, ptr %76, i32 0, i32 4
  %78 = load ptr, ptr %77, align 8, !tbaa !37
  %79 = getelementptr inbounds ptr, ptr %78, i64 1
  %80 = load ptr, ptr %79, align 8, !tbaa !33
  %81 = getelementptr inbounds double, ptr %80, i64 1
  store double %73, ptr %81, align 8, !tbaa !25
  %82 = load double, ptr %17, align 8, !tbaa !25
  %83 = fmul double -1.000000e+04, %82
  %84 = load ptr, ptr %12, align 8, !tbaa !9
  %85 = getelementptr inbounds nuw %struct._generic_SUNMatrix, ptr %84, i32 0, i32 0
  %86 = load ptr, ptr %85, align 8, !tbaa !34
  %87 = getelementptr inbounds nuw %struct._SUNMatrixContent_Dense, ptr %86, i32 0, i32 4
  %88 = load ptr, ptr %87, align 8, !tbaa !37
  %89 = getelementptr inbounds ptr, ptr %88, i64 2
  %90 = load ptr, ptr %89, align 8, !tbaa !33
  %91 = getelementptr inbounds double, ptr %90, i64 1
  store double %83, ptr %91, align 8, !tbaa !25
  %92 = load ptr, ptr %12, align 8, !tbaa !9
  %93 = getelementptr inbounds nuw %struct._generic_SUNMatrix, ptr %92, i32 0, i32 0
  %94 = load ptr, ptr %93, align 8, !tbaa !34
  %95 = getelementptr inbounds nuw %struct._SUNMatrixContent_Dense, ptr %94, i32 0, i32 4
  %96 = load ptr, ptr %95, align 8, !tbaa !37
  %97 = getelementptr inbounds ptr, ptr %96, i64 0
  %98 = load ptr, ptr %97, align 8, !tbaa !33
  %99 = getelementptr inbounds double, ptr %98, i64 2
  store double 0.000000e+00, ptr %99, align 8, !tbaa !25
  %100 = load double, ptr %17, align 8, !tbaa !25
  %101 = fmul double 6.000000e+07, %100
  %102 = load ptr, ptr %12, align 8, !tbaa !9
  %103 = getelementptr inbounds nuw %struct._generic_SUNMatrix, ptr %102, i32 0, i32 0
  %104 = load ptr, ptr %103, align 8, !tbaa !34
  %105 = getelementptr inbounds nuw %struct._SUNMatrixContent_Dense, ptr %104, i32 0, i32 4
  %106 = load ptr, ptr %105, align 8, !tbaa !37
  %107 = getelementptr inbounds ptr, ptr %106, i64 1
  %108 = load ptr, ptr %107, align 8, !tbaa !33
  %109 = getelementptr inbounds double, ptr %108, i64 2
  store double %101, ptr %109, align 8, !tbaa !25
  %110 = load ptr, ptr %12, align 8, !tbaa !9
  %111 = getelementptr inbounds nuw %struct._generic_SUNMatrix, ptr %110, i32 0, i32 0
  %112 = load ptr, ptr %111, align 8, !tbaa !34
  %113 = getelementptr inbounds nuw %struct._SUNMatrixContent_Dense, ptr %112, i32 0, i32 4
  %114 = load ptr, ptr %113, align 8, !tbaa !37
  %115 = getelementptr inbounds ptr, ptr %114, i64 2
  %116 = load ptr, ptr %115, align 8, !tbaa !33
  %117 = getelementptr inbounds double, ptr %116, i64 2
  store double 0.000000e+00, ptr %117, align 8, !tbaa !25
  call void @llvm.lifetime.end.p0(i64 8, ptr %18) #5
  call void @llvm.lifetime.end.p0(i64 8, ptr %17) #5
  ret i32 0
}