; Function Attrs: mustprogress nofree norecurse nosync nounwind willreturn memory(readwrite, inaccessiblemem: none) uwtable
define internal noundef i32 @Jac(double %0, ptr noundef readonly captures(none) %1, ptr readnone captures(none) %2, ptr noundef readonly captures(none) %3, ptr readnone captures(none) %4, ptr readnone captures(none) %5, ptr readnone captures(none) %6, ptr readnone captures(none) %7) #3 {
  %9 = load ptr, ptr %1, align 8, !tbaa !11
  %10 = getelementptr inbounds nuw i8, ptr %9, i64 16
  %11 = load ptr, ptr %10, align 8, !tbaa !14
  %12 = getelementptr inbounds nuw i8, ptr %11, i64 8
  %13 = load double, ptr %12, align 8, !tbaa !19
  %14 = getelementptr inbounds nuw i8, ptr %11, i64 16
  %15 = load double, ptr %14, align 8, !tbaa !19
  %16 = load ptr, ptr %3, align 8, !tbaa !23
  %17 = getelementptr inbounds nuw i8, ptr %16, i64 32
  %18 = load ptr, ptr %17, align 8, !tbaa !26
  %19 = load ptr, ptr %18, align 8, !tbaa !29
  store double -4.000000e-02, ptr %19, align 8, !tbaa !19
  %20 = fmul double %15, 1.000000e+04
  %21 = getelementptr inbounds nuw i8, ptr %18, i64 8
  %22 = load ptr, ptr %21, align 8, !tbaa !29
  store double %20, ptr %22, align 8, !tbaa !19
  %23 = fmul double %13, 1.000000e+04
  %24 = getelementptr inbounds nuw i8, ptr %18, i64 16
  %25 = load ptr, ptr %24, align 8, !tbaa !29
  store double %23, ptr %25, align 8, !tbaa !19
  %26 = getelementptr inbounds nuw i8, ptr %19, i64 8
  store double 4.000000e-02, ptr %26, align 8, !tbaa !19
  %27 = fmul double %13, 6.000000e+07
  %28 = fneg double %27
  %29 = tail call double @llvm.fmuladd.f64(double %15, double -1.000000e+04, double %28)
  %30 = getelementptr inbounds nuw i8, ptr %22, i64 8
  store double %29, ptr %30, align 8, !tbaa !19
  %31 = fmul double %13, -1.000000e+04
  %32 = getelementptr inbounds nuw i8, ptr %25, i64 8
  store double %31, ptr %32, align 8, !tbaa !19
  %33 = getelementptr inbounds nuw i8, ptr %19, i64 16
  store double 0.000000e+00, ptr %33, align 8, !tbaa !19
  %34 = getelementptr inbounds nuw i8, ptr %22, i64 16
  store double %27, ptr %34, align 8, !tbaa !19
  %35 = getelementptr inbounds nuw i8, ptr %25, i64 16
  store double 0.000000e+00, ptr %35, align 8, !tbaa !19
  ret i32 0
}